
kernel.elf:     file format elf64-littleriscv


Disassembly of section .text:

0000000080000000 <_start>:
    80000000:	f14022f3          	csrr	t0,mhartid
    80000004:	00002517          	auipc	a0,0x2
    80000008:	40c50513          	addi	a0,a0,1036 # 80002410 <_stacks>
    8000000c:	20000393          	li	t2,512
    80000010:	02728333          	mul	t1,t0,t2
    80000014:	00a30133          	add	sp,t1,a0
    80000018:	f14022f3          	csrr	t0,mhartid
    8000001c:	0a029063          	bnez	t0,800000bc <_wfi>
    80000020:	00000297          	auipc	t0,0x0
    80000024:	0b028293          	addi	t0,t0,176 # 800000d0 <_m_ct_switch>
    80000028:	30529073          	csrw	mtvec,t0
    8000002c:	00000297          	auipc	t0,0x0
    80000030:	3c828293          	addi	t0,t0,968 # 800003f4 <_s_ct_switch>
    80000034:	10529073          	csrw	stvec,t0
    80000038:	035000ef          	jal	ra,8000086c <display_current_mode>
    8000003c:	000012b7          	lui	t0,0x1
    80000040:	8202829b          	addiw	t0,t0,-2016 # 820 <MSTATUS_SPIE_MASK+0x800>
    80000044:	3002a073          	csrs	mstatus,t0
    80000048:	0d1000ef          	jal	ra,80000918 <dispaly_mstatus>
    8000004c:	18001073          	csrw	satp,zero
    80000050:	00001517          	auipc	a0,0x1
    80000054:	51850513          	addi	a0,a0,1304 # 80001568 <message>
    80000058:	3f4010ef          	jal	ra,8000144c <print>
    8000005c:	30401073          	csrw	mie,zero
    80000060:	00000297          	auipc	t0,0x0
    80000064:	72828293          	addi	t0,t0,1832 # 80000788 <kmain>
    80000068:	34129073          	csrw	mepc,t0
    8000006c:	fff00513          	li	a0,-1
    80000070:	3b051073          	csrw	pmpaddr0,a0
    80000074:	01f00513          	li	a0,31
    80000078:	3a051073          	csrw	pmpcfg0,a0
    8000007c:	000012b7          	lui	t0,0x1
    80000080:	8a02829b          	addiw	t0,t0,-1888 # 8a0 <MSTATUS_SPIE_MASK+0x880>
    80000084:	3042a073          	csrs	mie,t0
    80000088:	02000293          	li	t0,32
    8000008c:	3032a073          	csrs	mideleg,t0
    80000090:	0200c2b7          	lui	t0,0x200c
    80000094:	ff82829b          	addiw	t0,t0,-8 # 200bff8 <MTIME>
    80000098:	00000313          	li	t1,0
    8000009c:	0062b023          	sd	t1,0(t0)
    800000a0:	020042b7          	lui	t0,0x2004
    800000a4:	01313337          	lui	t1,0x1313
    800000a8:	d003031b          	addiw	t1,t1,-768 # 1312d00 <MSTATUS_SPIE_MASK+0x1312ce0>
    800000ac:	0062b023          	sd	t1,0(t0) # 2004000 <MTIMECMP>
    800000b0:	00000097          	auipc	ra,0x0
    800000b4:	00c08093          	addi	ra,ra,12 # 800000bc <_wfi>
    800000b8:	30200073          	mret

00000000800000bc <_wfi>:
    800000bc:	10500073          	wfi
    800000c0:	ffdff06f          	j	800000bc <_wfi>
    800000c4:	00000013          	nop
    800000c8:	00000013          	nop
    800000cc:	00000013          	nop

00000000800000d0 <_m_ct_switch>:
    800000d0:	6d4000ef          	jal	ra,800007a4 <display_trap_cause>
    800000d4:	342022f3          	csrr	t0,mcause
    800000d8:	00700313          	li	t1,7
    800000dc:	fff0039b          	addiw	t2,zero,-1
    800000e0:	03f39393          	slli	t2,t2,0x3f
    800000e4:	00736333          	or	t1,t1,t2
    800000e8:	0062f2b3          	and	t0,t0,t1
    800000ec:	30629263          	bne	t0,t1,800003f0 <_mret>
    800000f0:	6b4000ef          	jal	ra,800007a4 <display_trap_cause>
    800000f4:	00001517          	auipc	a0,0x1
    800000f8:	48450513          	addi	a0,a0,1156 # 80001578 <m_context_switch_msg>
    800000fc:	09d000ef          	jal	ra,80000998 <printf>
    80000100:	00113023          	sd	ra,0(sp)
    80000104:	00800293          	li	t0,8
    80000108:	00510133          	add	sp,sp,t0
    8000010c:	00213023          	sd	sp,0(sp)
    80000110:	00800293          	li	t0,8
    80000114:	00510133          	add	sp,sp,t0
    80000118:	00313023          	sd	gp,0(sp)
    8000011c:	00800293          	li	t0,8
    80000120:	00510133          	add	sp,sp,t0
    80000124:	00413023          	sd	tp,0(sp)
    80000128:	00800293          	li	t0,8
    8000012c:	00510133          	add	sp,sp,t0
    80000130:	00513023          	sd	t0,0(sp)
    80000134:	00800293          	li	t0,8
    80000138:	00510133          	add	sp,sp,t0
    8000013c:	00613023          	sd	t1,0(sp)
    80000140:	00800293          	li	t0,8
    80000144:	00510133          	add	sp,sp,t0
    80000148:	00713023          	sd	t2,0(sp)
    8000014c:	00800293          	li	t0,8
    80000150:	00510133          	add	sp,sp,t0
    80000154:	00813023          	sd	s0,0(sp)
    80000158:	00800293          	li	t0,8
    8000015c:	00510133          	add	sp,sp,t0
    80000160:	00913023          	sd	s1,0(sp)
    80000164:	00800293          	li	t0,8
    80000168:	00510133          	add	sp,sp,t0
    8000016c:	00a13023          	sd	a0,0(sp)
    80000170:	00800293          	li	t0,8
    80000174:	00510133          	add	sp,sp,t0
    80000178:	00b13023          	sd	a1,0(sp)
    8000017c:	00800293          	li	t0,8
    80000180:	00510133          	add	sp,sp,t0
    80000184:	00c13023          	sd	a2,0(sp)
    80000188:	00800293          	li	t0,8
    8000018c:	00510133          	add	sp,sp,t0
    80000190:	00d13023          	sd	a3,0(sp)
    80000194:	00800293          	li	t0,8
    80000198:	00510133          	add	sp,sp,t0
    8000019c:	00e13023          	sd	a4,0(sp)
    800001a0:	00800293          	li	t0,8
    800001a4:	00510133          	add	sp,sp,t0
    800001a8:	00f13023          	sd	a5,0(sp)
    800001ac:	00800293          	li	t0,8
    800001b0:	00510133          	add	sp,sp,t0
    800001b4:	01013023          	sd	a6,0(sp)
    800001b8:	00800293          	li	t0,8
    800001bc:	00510133          	add	sp,sp,t0
    800001c0:	01113023          	sd	a7,0(sp)
    800001c4:	00800293          	li	t0,8
    800001c8:	00510133          	add	sp,sp,t0
    800001cc:	01213023          	sd	s2,0(sp)
    800001d0:	00800293          	li	t0,8
    800001d4:	00510133          	add	sp,sp,t0
    800001d8:	01313023          	sd	s3,0(sp)
    800001dc:	00800293          	li	t0,8
    800001e0:	00510133          	add	sp,sp,t0
    800001e4:	01413023          	sd	s4,0(sp)
    800001e8:	00800293          	li	t0,8
    800001ec:	00510133          	add	sp,sp,t0
    800001f0:	01513023          	sd	s5,0(sp)
    800001f4:	00800293          	li	t0,8
    800001f8:	00510133          	add	sp,sp,t0
    800001fc:	01613023          	sd	s6,0(sp)
    80000200:	00800293          	li	t0,8
    80000204:	00510133          	add	sp,sp,t0
    80000208:	01713023          	sd	s7,0(sp)
    8000020c:	00800293          	li	t0,8
    80000210:	00510133          	add	sp,sp,t0
    80000214:	01813023          	sd	s8,0(sp)
    80000218:	00800293          	li	t0,8
    8000021c:	00510133          	add	sp,sp,t0
    80000220:	01913023          	sd	s9,0(sp)
    80000224:	00800293          	li	t0,8
    80000228:	00510133          	add	sp,sp,t0
    8000022c:	01a13023          	sd	s10,0(sp)
    80000230:	00800293          	li	t0,8
    80000234:	00510133          	add	sp,sp,t0
    80000238:	01b13023          	sd	s11,0(sp)
    8000023c:	00800293          	li	t0,8
    80000240:	00510133          	add	sp,sp,t0
    80000244:	01c13023          	sd	t3,0(sp)
    80000248:	00800293          	li	t0,8
    8000024c:	00510133          	add	sp,sp,t0
    80000250:	01d13023          	sd	t4,0(sp)
    80000254:	00800293          	li	t0,8
    80000258:	00510133          	add	sp,sp,t0
    8000025c:	01e13023          	sd	t5,0(sp)
    80000260:	00800293          	li	t0,8
    80000264:	00510133          	add	sp,sp,t0
    80000268:	01f13023          	sd	t6,0(sp)
    8000026c:	00800293          	li	t0,8
    80000270:	00510133          	add	sp,sp,t0
    80000274:	4a8000ef          	jal	ra,8000071c <timer_handler>
    80000278:	ff800293          	li	t0,-8
    8000027c:	00510133          	add	sp,sp,t0
    80000280:	00013f83          	ld	t6,0(sp)
    80000284:	ff800293          	li	t0,-8
    80000288:	00510133          	add	sp,sp,t0
    8000028c:	00013f03          	ld	t5,0(sp)
    80000290:	ff800293          	li	t0,-8
    80000294:	00510133          	add	sp,sp,t0
    80000298:	00013e83          	ld	t4,0(sp)
    8000029c:	ff800293          	li	t0,-8
    800002a0:	00510133          	add	sp,sp,t0
    800002a4:	00013e03          	ld	t3,0(sp)
    800002a8:	ff800293          	li	t0,-8
    800002ac:	00510133          	add	sp,sp,t0
    800002b0:	00013d83          	ld	s11,0(sp)
    800002b4:	ff800293          	li	t0,-8
    800002b8:	00510133          	add	sp,sp,t0
    800002bc:	00013d03          	ld	s10,0(sp)
    800002c0:	ff800293          	li	t0,-8
    800002c4:	00510133          	add	sp,sp,t0
    800002c8:	00013c83          	ld	s9,0(sp)
    800002cc:	ff800293          	li	t0,-8
    800002d0:	00510133          	add	sp,sp,t0
    800002d4:	00013c03          	ld	s8,0(sp)
    800002d8:	ff800293          	li	t0,-8
    800002dc:	00510133          	add	sp,sp,t0
    800002e0:	00013b83          	ld	s7,0(sp)
    800002e4:	ff800293          	li	t0,-8
    800002e8:	00510133          	add	sp,sp,t0
    800002ec:	00013b03          	ld	s6,0(sp)
    800002f0:	ff800293          	li	t0,-8
    800002f4:	00510133          	add	sp,sp,t0
    800002f8:	00013a83          	ld	s5,0(sp)
    800002fc:	ff800293          	li	t0,-8
    80000300:	00510133          	add	sp,sp,t0
    80000304:	00013a03          	ld	s4,0(sp)
    80000308:	ff800293          	li	t0,-8
    8000030c:	00510133          	add	sp,sp,t0
    80000310:	00013983          	ld	s3,0(sp)
    80000314:	ff800293          	li	t0,-8
    80000318:	00510133          	add	sp,sp,t0
    8000031c:	00013903          	ld	s2,0(sp)
    80000320:	ff800293          	li	t0,-8
    80000324:	00510133          	add	sp,sp,t0
    80000328:	00013883          	ld	a7,0(sp)
    8000032c:	ff800293          	li	t0,-8
    80000330:	00510133          	add	sp,sp,t0
    80000334:	00013803          	ld	a6,0(sp)
    80000338:	ff800293          	li	t0,-8
    8000033c:	00510133          	add	sp,sp,t0
    80000340:	00013783          	ld	a5,0(sp)
    80000344:	ff800293          	li	t0,-8
    80000348:	00510133          	add	sp,sp,t0
    8000034c:	00013703          	ld	a4,0(sp)
    80000350:	ff800293          	li	t0,-8
    80000354:	00510133          	add	sp,sp,t0
    80000358:	00013683          	ld	a3,0(sp)
    8000035c:	ff800293          	li	t0,-8
    80000360:	00510133          	add	sp,sp,t0
    80000364:	00013603          	ld	a2,0(sp)
    80000368:	ff800293          	li	t0,-8
    8000036c:	00510133          	add	sp,sp,t0
    80000370:	00013583          	ld	a1,0(sp)
    80000374:	ff800293          	li	t0,-8
    80000378:	00510133          	add	sp,sp,t0
    8000037c:	00013503          	ld	a0,0(sp)
    80000380:	ff800293          	li	t0,-8
    80000384:	00510133          	add	sp,sp,t0
    80000388:	00013483          	ld	s1,0(sp)
    8000038c:	ff800293          	li	t0,-8
    80000390:	00510133          	add	sp,sp,t0
    80000394:	00013403          	ld	s0,0(sp)
    80000398:	ff800293          	li	t0,-8
    8000039c:	00510133          	add	sp,sp,t0
    800003a0:	00013383          	ld	t2,0(sp)
    800003a4:	ff800293          	li	t0,-8
    800003a8:	00510133          	add	sp,sp,t0
    800003ac:	00013303          	ld	t1,0(sp)
    800003b0:	ff800293          	li	t0,-8
    800003b4:	00510133          	add	sp,sp,t0
    800003b8:	00013283          	ld	t0,0(sp)
    800003bc:	ff800293          	li	t0,-8
    800003c0:	00510133          	add	sp,sp,t0
    800003c4:	00013203          	ld	tp,0(sp)
    800003c8:	ff800293          	li	t0,-8
    800003cc:	00510133          	add	sp,sp,t0
    800003d0:	00013183          	ld	gp,0(sp)
    800003d4:	ff800293          	li	t0,-8
    800003d8:	00510133          	add	sp,sp,t0
    800003dc:	00013103          	ld	sp,0(sp)
    800003e0:	ff800293          	li	t0,-8
    800003e4:	00510133          	add	sp,sp,t0
    800003e8:	00013083          	ld	ra,0(sp)
    800003ec:	30200073          	mret

00000000800003f0 <_mret>:
    800003f0:	30200073          	mret

00000000800003f4 <_s_ct_switch>:
    800003f4:	142022f3          	csrr	t0,scause
    800003f8:	00500313          	li	t1,5
    800003fc:	fff0039b          	addiw	t2,zero,-1
    80000400:	03f39393          	slli	t2,t2,0x3f
    80000404:	00736333          	or	t1,t1,t2
    80000408:	0062f2b3          	and	t0,t0,t1
    8000040c:	30629063          	bne	t0,t1,8000070c <_sret>
    80000410:	00001517          	auipc	a0,0x1
    80000414:	18250513          	addi	a0,a0,386 # 80001592 <s_context_switch_msg>
    80000418:	034010ef          	jal	ra,8000144c <print>
    8000041c:	00113023          	sd	ra,0(sp)
    80000420:	00800293          	li	t0,8
    80000424:	00510133          	add	sp,sp,t0
    80000428:	00213023          	sd	sp,0(sp)
    8000042c:	00800293          	li	t0,8
    80000430:	00510133          	add	sp,sp,t0
    80000434:	00313023          	sd	gp,0(sp)
    80000438:	00800293          	li	t0,8
    8000043c:	00510133          	add	sp,sp,t0
    80000440:	00413023          	sd	tp,0(sp)
    80000444:	00800293          	li	t0,8
    80000448:	00510133          	add	sp,sp,t0
    8000044c:	00513023          	sd	t0,0(sp)
    80000450:	00800293          	li	t0,8
    80000454:	00510133          	add	sp,sp,t0
    80000458:	00613023          	sd	t1,0(sp)
    8000045c:	00800293          	li	t0,8
    80000460:	00510133          	add	sp,sp,t0
    80000464:	00713023          	sd	t2,0(sp)
    80000468:	00800293          	li	t0,8
    8000046c:	00510133          	add	sp,sp,t0
    80000470:	00813023          	sd	s0,0(sp)
    80000474:	00800293          	li	t0,8
    80000478:	00510133          	add	sp,sp,t0
    8000047c:	00913023          	sd	s1,0(sp)
    80000480:	00800293          	li	t0,8
    80000484:	00510133          	add	sp,sp,t0
    80000488:	00a13023          	sd	a0,0(sp)
    8000048c:	00800293          	li	t0,8
    80000490:	00510133          	add	sp,sp,t0
    80000494:	00b13023          	sd	a1,0(sp)
    80000498:	00800293          	li	t0,8
    8000049c:	00510133          	add	sp,sp,t0
    800004a0:	00c13023          	sd	a2,0(sp)
    800004a4:	00800293          	li	t0,8
    800004a8:	00510133          	add	sp,sp,t0
    800004ac:	00d13023          	sd	a3,0(sp)
    800004b0:	00800293          	li	t0,8
    800004b4:	00510133          	add	sp,sp,t0
    800004b8:	00e13023          	sd	a4,0(sp)
    800004bc:	00800293          	li	t0,8
    800004c0:	00510133          	add	sp,sp,t0
    800004c4:	00f13023          	sd	a5,0(sp)
    800004c8:	00800293          	li	t0,8
    800004cc:	00510133          	add	sp,sp,t0
    800004d0:	01013023          	sd	a6,0(sp)
    800004d4:	00800293          	li	t0,8
    800004d8:	00510133          	add	sp,sp,t0
    800004dc:	01113023          	sd	a7,0(sp)
    800004e0:	00800293          	li	t0,8
    800004e4:	00510133          	add	sp,sp,t0
    800004e8:	01213023          	sd	s2,0(sp)
    800004ec:	00800293          	li	t0,8
    800004f0:	00510133          	add	sp,sp,t0
    800004f4:	01313023          	sd	s3,0(sp)
    800004f8:	00800293          	li	t0,8
    800004fc:	00510133          	add	sp,sp,t0
    80000500:	01413023          	sd	s4,0(sp)
    80000504:	00800293          	li	t0,8
    80000508:	00510133          	add	sp,sp,t0
    8000050c:	01513023          	sd	s5,0(sp)
    80000510:	00800293          	li	t0,8
    80000514:	00510133          	add	sp,sp,t0
    80000518:	01613023          	sd	s6,0(sp)
    8000051c:	00800293          	li	t0,8
    80000520:	00510133          	add	sp,sp,t0
    80000524:	01713023          	sd	s7,0(sp)
    80000528:	00800293          	li	t0,8
    8000052c:	00510133          	add	sp,sp,t0
    80000530:	01813023          	sd	s8,0(sp)
    80000534:	00800293          	li	t0,8
    80000538:	00510133          	add	sp,sp,t0
    8000053c:	01913023          	sd	s9,0(sp)
    80000540:	00800293          	li	t0,8
    80000544:	00510133          	add	sp,sp,t0
    80000548:	01a13023          	sd	s10,0(sp)
    8000054c:	00800293          	li	t0,8
    80000550:	00510133          	add	sp,sp,t0
    80000554:	01b13023          	sd	s11,0(sp)
    80000558:	00800293          	li	t0,8
    8000055c:	00510133          	add	sp,sp,t0
    80000560:	01c13023          	sd	t3,0(sp)
    80000564:	00800293          	li	t0,8
    80000568:	00510133          	add	sp,sp,t0
    8000056c:	01d13023          	sd	t4,0(sp)
    80000570:	00800293          	li	t0,8
    80000574:	00510133          	add	sp,sp,t0
    80000578:	01e13023          	sd	t5,0(sp)
    8000057c:	00800293          	li	t0,8
    80000580:	00510133          	add	sp,sp,t0
    80000584:	01f13023          	sd	t6,0(sp)
    80000588:	00800293          	li	t0,8
    8000058c:	00510133          	add	sp,sp,t0
    80000590:	18c000ef          	jal	ra,8000071c <timer_handler>
    80000594:	ff800293          	li	t0,-8
    80000598:	00510133          	add	sp,sp,t0
    8000059c:	00013f83          	ld	t6,0(sp)
    800005a0:	ff800293          	li	t0,-8
    800005a4:	00510133          	add	sp,sp,t0
    800005a8:	00013f03          	ld	t5,0(sp)
    800005ac:	ff800293          	li	t0,-8
    800005b0:	00510133          	add	sp,sp,t0
    800005b4:	00013e83          	ld	t4,0(sp)
    800005b8:	ff800293          	li	t0,-8
    800005bc:	00510133          	add	sp,sp,t0
    800005c0:	00013e03          	ld	t3,0(sp)
    800005c4:	ff800293          	li	t0,-8
    800005c8:	00510133          	add	sp,sp,t0
    800005cc:	00013d83          	ld	s11,0(sp)
    800005d0:	ff800293          	li	t0,-8
    800005d4:	00510133          	add	sp,sp,t0
    800005d8:	00013d03          	ld	s10,0(sp)
    800005dc:	ff800293          	li	t0,-8
    800005e0:	00510133          	add	sp,sp,t0
    800005e4:	00013c83          	ld	s9,0(sp)
    800005e8:	ff800293          	li	t0,-8
    800005ec:	00510133          	add	sp,sp,t0
    800005f0:	00013c03          	ld	s8,0(sp)
    800005f4:	ff800293          	li	t0,-8
    800005f8:	00510133          	add	sp,sp,t0
    800005fc:	00013b83          	ld	s7,0(sp)
    80000600:	ff800293          	li	t0,-8
    80000604:	00510133          	add	sp,sp,t0
    80000608:	00013b03          	ld	s6,0(sp)
    8000060c:	ff800293          	li	t0,-8
    80000610:	00510133          	add	sp,sp,t0
    80000614:	00013a83          	ld	s5,0(sp)
    80000618:	ff800293          	li	t0,-8
    8000061c:	00510133          	add	sp,sp,t0
    80000620:	00013a03          	ld	s4,0(sp)
    80000624:	ff800293          	li	t0,-8
    80000628:	00510133          	add	sp,sp,t0
    8000062c:	00013983          	ld	s3,0(sp)
    80000630:	ff800293          	li	t0,-8
    80000634:	00510133          	add	sp,sp,t0
    80000638:	00013903          	ld	s2,0(sp)
    8000063c:	ff800293          	li	t0,-8
    80000640:	00510133          	add	sp,sp,t0
    80000644:	00013883          	ld	a7,0(sp)
    80000648:	ff800293          	li	t0,-8
    8000064c:	00510133          	add	sp,sp,t0
    80000650:	00013803          	ld	a6,0(sp)
    80000654:	ff800293          	li	t0,-8
    80000658:	00510133          	add	sp,sp,t0
    8000065c:	00013783          	ld	a5,0(sp)
    80000660:	ff800293          	li	t0,-8
    80000664:	00510133          	add	sp,sp,t0
    80000668:	00013703          	ld	a4,0(sp)
    8000066c:	ff800293          	li	t0,-8
    80000670:	00510133          	add	sp,sp,t0
    80000674:	00013683          	ld	a3,0(sp)
    80000678:	ff800293          	li	t0,-8
    8000067c:	00510133          	add	sp,sp,t0
    80000680:	00013603          	ld	a2,0(sp)
    80000684:	ff800293          	li	t0,-8
    80000688:	00510133          	add	sp,sp,t0
    8000068c:	00013583          	ld	a1,0(sp)
    80000690:	ff800293          	li	t0,-8
    80000694:	00510133          	add	sp,sp,t0
    80000698:	00013503          	ld	a0,0(sp)
    8000069c:	ff800293          	li	t0,-8
    800006a0:	00510133          	add	sp,sp,t0
    800006a4:	00013483          	ld	s1,0(sp)
    800006a8:	ff800293          	li	t0,-8
    800006ac:	00510133          	add	sp,sp,t0
    800006b0:	00013403          	ld	s0,0(sp)
    800006b4:	ff800293          	li	t0,-8
    800006b8:	00510133          	add	sp,sp,t0
    800006bc:	00013383          	ld	t2,0(sp)
    800006c0:	ff800293          	li	t0,-8
    800006c4:	00510133          	add	sp,sp,t0
    800006c8:	00013303          	ld	t1,0(sp)
    800006cc:	ff800293          	li	t0,-8
    800006d0:	00510133          	add	sp,sp,t0
    800006d4:	00013283          	ld	t0,0(sp)
    800006d8:	ff800293          	li	t0,-8
    800006dc:	00510133          	add	sp,sp,t0
    800006e0:	00013203          	ld	tp,0(sp)
    800006e4:	ff800293          	li	t0,-8
    800006e8:	00510133          	add	sp,sp,t0
    800006ec:	00013183          	ld	gp,0(sp)
    800006f0:	ff800293          	li	t0,-8
    800006f4:	00510133          	add	sp,sp,t0
    800006f8:	00013103          	ld	sp,0(sp)
    800006fc:	ff800293          	li	t0,-8
    80000700:	00510133          	add	sp,sp,t0
    80000704:	00013083          	ld	ra,0(sp)
    80000708:	10200073          	sret

000000008000070c <_sret>:
    8000070c:	10200073          	sret
	...

000000008000071c <timer_handler>:
    8000071c:	ff010113          	addi	sp,sp,-16
    80000720:	00113423          	sd	ra,8(sp)
    80000724:	00813023          	sd	s0,0(sp)
    80000728:	01010413          	addi	s0,sp,16
    8000072c:	00001797          	auipc	a5,0x1
    80000730:	e2c78793          	addi	a5,a5,-468 # 80001558 <roundNumer.0>
    80000734:	0007b783          	ld	a5,0(a5)
    80000738:	00178713          	addi	a4,a5,1
    8000073c:	00001797          	auipc	a5,0x1
    80000740:	e1c78793          	addi	a5,a5,-484 # 80001558 <roundNumer.0>
    80000744:	00e7b023          	sd	a4,0(a5)
    80000748:	00001797          	auipc	a5,0x1
    8000074c:	e1078793          	addi	a5,a5,-496 # 80001558 <roundNumer.0>
    80000750:	0007b683          	ld	a3,0(a5)
    80000754:	020047b7          	lui	a5,0x2004
    80000758:	01313737          	lui	a4,0x1313
    8000075c:	d0070713          	addi	a4,a4,-768 # 1312d00 <MSTATUS_SPIE_MASK+0x1312ce0>
    80000760:	02e68733          	mul	a4,a3,a4
    80000764:	00e7b023          	sd	a4,0(a5) # 2004000 <MTIMECMP>
    80000768:	00001517          	auipc	a0,0x1
    8000076c:	e4850513          	addi	a0,a0,-440 # 800015b0 <s_context_switch_msg+0x1e>
    80000770:	228000ef          	jal	ra,80000998 <printf>
    80000774:	00000013          	nop
    80000778:	00813083          	ld	ra,8(sp)
    8000077c:	00013403          	ld	s0,0(sp)
    80000780:	01010113          	addi	sp,sp,16
    80000784:	00008067          	ret

0000000080000788 <kmain>:
    80000788:	ff010113          	addi	sp,sp,-16
    8000078c:	00813423          	sd	s0,8(sp)
    80000790:	01010413          	addi	s0,sp,16
    80000794:	00000013          	nop
    80000798:	00813403          	ld	s0,8(sp)
    8000079c:	01010113          	addi	sp,sp,16
    800007a0:	00008067          	ret

00000000800007a4 <display_trap_cause>:
    800007a4:	fe010113          	addi	sp,sp,-32
    800007a8:	00113c23          	sd	ra,24(sp)
    800007ac:	00813823          	sd	s0,16(sp)
    800007b0:	02010413          	addi	s0,sp,32
    800007b4:	342027f3          	csrr	a5,mcause
    800007b8:	00078093          	mv	ra,a5
    800007bc:	00008793          	mv	a5,ra
    800007c0:	fef43423          	sd	a5,-24(s0)
    800007c4:	fe843583          	ld	a1,-24(s0)
    800007c8:	00001517          	auipc	a0,0x1
    800007cc:	03850513          	addi	a0,a0,56 # 80001800 <s_context_switch_msg+0x26e>
    800007d0:	1c8000ef          	jal	ra,80000998 <printf>
    800007d4:	fe843783          	ld	a5,-24(s0)
    800007d8:	fef42223          	sw	a5,-28(s0)
    800007dc:	fe442783          	lw	a5,-28(s0)
    800007e0:	0407d063          	bgez	a5,80000820 <display_trap_cause+0x7c>
    800007e4:	fe442783          	lw	a5,-28(s0)
    800007e8:	fff7879b          	addiw	a5,a5,-1
    800007ec:	0007879b          	sext.w	a5,a5
    800007f0:	00002717          	auipc	a4,0x2
    800007f4:	42070713          	addi	a4,a4,1056 # 80002c10 <cause_to_string>
    800007f8:	02079793          	slli	a5,a5,0x20
    800007fc:	0207d793          	srli	a5,a5,0x20
    80000800:	00379793          	slli	a5,a5,0x3
    80000804:	00f707b3          	add	a5,a4,a5
    80000808:	0007b783          	ld	a5,0(a5)
    8000080c:	00078593          	mv	a1,a5
    80000810:	00001517          	auipc	a0,0x1
    80000814:	00050513          	mv	a0,a0
    80000818:	180000ef          	jal	ra,80000998 <printf>
    8000081c:	03c0006f          	j	80000858 <display_trap_cause+0xb4>
    80000820:	fe442783          	lw	a5,-28(s0)
    80000824:	00b7879b          	addiw	a5,a5,11
    80000828:	0007879b          	sext.w	a5,a5
    8000082c:	00002717          	auipc	a4,0x2
    80000830:	3e470713          	addi	a4,a4,996 # 80002c10 <cause_to_string>
    80000834:	02079793          	slli	a5,a5,0x20
    80000838:	0207d793          	srli	a5,a5,0x20
    8000083c:	00379793          	slli	a5,a5,0x3
    80000840:	00f707b3          	add	a5,a4,a5
    80000844:	0007b783          	ld	a5,0(a5)
    80000848:	00078593          	mv	a1,a5
    8000084c:	00001517          	auipc	a0,0x1
    80000850:	fd450513          	addi	a0,a0,-44 # 80001820 <s_context_switch_msg+0x28e>
    80000854:	144000ef          	jal	ra,80000998 <printf>
    80000858:	00000013          	nop
    8000085c:	01813083          	ld	ra,24(sp)
    80000860:	01013403          	ld	s0,16(sp)
    80000864:	02010113          	addi	sp,sp,32
    80000868:	00008067          	ret

000000008000086c <display_current_mode>:
    8000086c:	fe010113          	addi	sp,sp,-32
    80000870:	00113c23          	sd	ra,24(sp)
    80000874:	00813823          	sd	s0,16(sp)
    80000878:	02010413          	addi	s0,sp,32
    8000087c:	100027f3          	csrr	a5,sstatus
    80000880:	00078093          	mv	ra,a5
    80000884:	00008793          	mv	a5,ra
    80000888:	fef43423          	sd	a5,-24(s0)
    8000088c:	fe843783          	ld	a5,-24(s0)
    80000890:	00b7d793          	srli	a5,a5,0xb
    80000894:	0037f793          	andi	a5,a5,3
    80000898:	fef43023          	sd	a5,-32(s0)
    8000089c:	fe043703          	ld	a4,-32(s0)
    800008a0:	00200793          	li	a5,2
    800008a4:	04f70263          	beq	a4,a5,800008e8 <display_current_mode+0x7c>
    800008a8:	fe043703          	ld	a4,-32(s0)
    800008ac:	00200793          	li	a5,2
    800008b0:	04e7e263          	bltu	a5,a4,800008f4 <display_current_mode+0x88>
    800008b4:	fe043783          	ld	a5,-32(s0)
    800008b8:	00078a63          	beqz	a5,800008cc <display_current_mode+0x60>
    800008bc:	fe043703          	ld	a4,-32(s0)
    800008c0:	00100793          	li	a5,1
    800008c4:	00f70c63          	beq	a4,a5,800008dc <display_current_mode+0x70>
    800008c8:	02c0006f          	j	800008f4 <display_current_mode+0x88>
    800008cc:	00001517          	auipc	a0,0x1
    800008d0:	f6450513          	addi	a0,a0,-156 # 80001830 <s_context_switch_msg+0x29e>
    800008d4:	0c4000ef          	jal	ra,80000998 <printf>
    800008d8:	02c0006f          	j	80000904 <display_current_mode+0x98>
    800008dc:	00001517          	auipc	a0,0x1
    800008e0:	f6450513          	addi	a0,a0,-156 # 80001840 <s_context_switch_msg+0x2ae>
    800008e4:	0b4000ef          	jal	ra,80000998 <printf>
    800008e8:	00001517          	auipc	a0,0x1
    800008ec:	f7050513          	addi	a0,a0,-144 # 80001858 <s_context_switch_msg+0x2c6>
    800008f0:	0a8000ef          	jal	ra,80000998 <printf>
    800008f4:	00001517          	auipc	a0,0x1
    800008f8:	f7450513          	addi	a0,a0,-140 # 80001868 <s_context_switch_msg+0x2d6>
    800008fc:	09c000ef          	jal	ra,80000998 <printf>
    80000900:	00000013          	nop
    80000904:	00000013          	nop
    80000908:	01813083          	ld	ra,24(sp)
    8000090c:	01013403          	ld	s0,16(sp)
    80000910:	02010113          	addi	sp,sp,32
    80000914:	00008067          	ret

0000000080000918 <dispaly_mstatus>:
    80000918:	ff010113          	addi	sp,sp,-16
    8000091c:	00113423          	sd	ra,8(sp)
    80000920:	00813023          	sd	s0,0(sp)
    80000924:	01010413          	addi	s0,sp,16
    80000928:	300027f3          	csrr	a5,mstatus
    8000092c:	00078093          	mv	ra,a5
    80000930:	00008793          	mv	a5,ra
    80000934:	00078593          	mv	a1,a5
    80000938:	00001517          	auipc	a0,0x1
    8000093c:	f4050513          	addi	a0,a0,-192 # 80001878 <s_context_switch_msg+0x2e6>
    80000940:	058000ef          	jal	ra,80000998 <printf>
    80000944:	00000013          	nop
    80000948:	00813083          	ld	ra,8(sp)
    8000094c:	00013403          	ld	s0,0(sp)
    80000950:	01010113          	addi	sp,sp,16
    80000954:	00008067          	ret

0000000080000958 <dispaly_sstatus>:
    80000958:	ff010113          	addi	sp,sp,-16
    8000095c:	00113423          	sd	ra,8(sp)
    80000960:	00813023          	sd	s0,0(sp)
    80000964:	01010413          	addi	s0,sp,16
    80000968:	100027f3          	csrr	a5,sstatus
    8000096c:	00078093          	mv	ra,a5
    80000970:	00008793          	mv	a5,ra
    80000974:	00078593          	mv	a1,a5
    80000978:	00001517          	auipc	a0,0x1
    8000097c:	f1050513          	addi	a0,a0,-240 # 80001888 <s_context_switch_msg+0x2f6>
    80000980:	018000ef          	jal	ra,80000998 <printf>
    80000984:	00000013          	nop
    80000988:	00813083          	ld	ra,8(sp)
    8000098c:	00013403          	ld	s0,0(sp)
    80000990:	01010113          	addi	sp,sp,16
    80000994:	00008067          	ret

0000000080000998 <printf>:
    80000998:	f9010113          	addi	sp,sp,-112
    8000099c:	02113423          	sd	ra,40(sp)
    800009a0:	02813023          	sd	s0,32(sp)
    800009a4:	03010413          	addi	s0,sp,48
    800009a8:	fca43c23          	sd	a0,-40(s0)
    800009ac:	00b43423          	sd	a1,8(s0)
    800009b0:	00c43823          	sd	a2,16(s0)
    800009b4:	00d43c23          	sd	a3,24(s0)
    800009b8:	02e43023          	sd	a4,32(s0)
    800009bc:	02f43423          	sd	a5,40(s0)
    800009c0:	03043823          	sd	a6,48(s0)
    800009c4:	03143c23          	sd	a7,56(s0)
    800009c8:	fe042623          	sw	zero,-20(s0)
    800009cc:	04040793          	addi	a5,s0,64
    800009d0:	fcf43823          	sd	a5,-48(s0)
    800009d4:	fd043783          	ld	a5,-48(s0)
    800009d8:	fc878793          	addi	a5,a5,-56
    800009dc:	fef43023          	sd	a5,-32(s0)
    800009e0:	fe043783          	ld	a5,-32(s0)
    800009e4:	00078593          	mv	a1,a5
    800009e8:	fd843503          	ld	a0,-40(s0)
    800009ec:	2b9000ef          	jal	ra,800014a4 <vprintf>
    800009f0:	00050793          	mv	a5,a0
    800009f4:	fef42623          	sw	a5,-20(s0)
    800009f8:	fec42783          	lw	a5,-20(s0)
    800009fc:	00078513          	mv	a0,a5
    80000a00:	02813083          	ld	ra,40(sp)
    80000a04:	02013403          	ld	s0,32(sp)
    80000a08:	07010113          	addi	sp,sp,112
    80000a0c:	00008067          	ret

0000000080000a10 <vsnprintf>:
    80000a10:	f6010113          	addi	sp,sp,-160
    80000a14:	08813c23          	sd	s0,152(sp)
    80000a18:	0a010413          	addi	s0,sp,160
    80000a1c:	f6a43c23          	sd	a0,-136(s0)
    80000a20:	f6b43823          	sd	a1,-144(s0)
    80000a24:	f6c43423          	sd	a2,-152(s0)
    80000a28:	f6d43023          	sd	a3,-160(s0)
    80000a2c:	fe042623          	sw	zero,-20(s0)
    80000a30:	fe042423          	sw	zero,-24(s0)
    80000a34:	fe043023          	sd	zero,-32(s0)
    80000a38:	5840006f          	j	80000fbc <vsnprintf+0x5ac>
    80000a3c:	fec42783          	lw	a5,-20(s0)
    80000a40:	0007879b          	sext.w	a5,a5
    80000a44:	50078663          	beqz	a5,80000f50 <vsnprintf+0x540>
    80000a48:	f6843783          	ld	a5,-152(s0)
    80000a4c:	0007c783          	lbu	a5,0(a5)
    80000a50:	0007879b          	sext.w	a5,a5
    80000a54:	f9d7869b          	addiw	a3,a5,-99
    80000a58:	0006871b          	sext.w	a4,a3
    80000a5c:	01500793          	li	a5,21
    80000a60:	54e7e663          	bltu	a5,a4,80000fac <vsnprintf+0x59c>
    80000a64:	02069793          	slli	a5,a3,0x20
    80000a68:	0207d793          	srli	a5,a5,0x20
    80000a6c:	00279713          	slli	a4,a5,0x2
    80000a70:	00001797          	auipc	a5,0x1
    80000a74:	e2878793          	addi	a5,a5,-472 # 80001898 <s_context_switch_msg+0x306>
    80000a78:	00f707b3          	add	a5,a4,a5
    80000a7c:	0007a783          	lw	a5,0(a5)
    80000a80:	0007871b          	sext.w	a4,a5
    80000a84:	00001797          	auipc	a5,0x1
    80000a88:	e1478793          	addi	a5,a5,-492 # 80001898 <s_context_switch_msg+0x306>
    80000a8c:	00f707b3          	add	a5,a4,a5
    80000a90:	00078067          	jr	a5
    80000a94:	00100793          	li	a5,1
    80000a98:	fef42423          	sw	a5,-24(s0)
    80000a9c:	5140006f          	j	80000fb0 <vsnprintf+0x5a0>
    80000aa0:	00100793          	li	a5,1
    80000aa4:	fef42423          	sw	a5,-24(s0)
    80000aa8:	f7843783          	ld	a5,-136(s0)
    80000aac:	02078263          	beqz	a5,80000ad0 <vsnprintf+0xc0>
    80000ab0:	fe043703          	ld	a4,-32(s0)
    80000ab4:	f7043783          	ld	a5,-144(s0)
    80000ab8:	00f77c63          	bgeu	a4,a5,80000ad0 <vsnprintf+0xc0>
    80000abc:	f7843703          	ld	a4,-136(s0)
    80000ac0:	fe043783          	ld	a5,-32(s0)
    80000ac4:	00f707b3          	add	a5,a4,a5
    80000ac8:	03000713          	li	a4,48
    80000acc:	00e78023          	sb	a4,0(a5)
    80000ad0:	fe043783          	ld	a5,-32(s0)
    80000ad4:	00178793          	addi	a5,a5,1
    80000ad8:	fef43023          	sd	a5,-32(s0)
    80000adc:	f7843783          	ld	a5,-136(s0)
    80000ae0:	02078263          	beqz	a5,80000b04 <vsnprintf+0xf4>
    80000ae4:	fe043703          	ld	a4,-32(s0)
    80000ae8:	f7043783          	ld	a5,-144(s0)
    80000aec:	00f77c63          	bgeu	a4,a5,80000b04 <vsnprintf+0xf4>
    80000af0:	f7843703          	ld	a4,-136(s0)
    80000af4:	fe043783          	ld	a5,-32(s0)
    80000af8:	00f707b3          	add	a5,a4,a5
    80000afc:	07800713          	li	a4,120
    80000b00:	00e78023          	sb	a4,0(a5)
    80000b04:	fe043783          	ld	a5,-32(s0)
    80000b08:	00178793          	addi	a5,a5,1
    80000b0c:	fef43023          	sd	a5,-32(s0)
    80000b10:	fe842783          	lw	a5,-24(s0)
    80000b14:	0007879b          	sext.w	a5,a5
    80000b18:	00078c63          	beqz	a5,80000b30 <vsnprintf+0x120>
    80000b1c:	f6043783          	ld	a5,-160(s0)
    80000b20:	00878713          	addi	a4,a5,8
    80000b24:	f6e43023          	sd	a4,-160(s0)
    80000b28:	0007b783          	ld	a5,0(a5)
    80000b2c:	0140006f          	j	80000b40 <vsnprintf+0x130>
    80000b30:	f6043783          	ld	a5,-160(s0)
    80000b34:	00878713          	addi	a4,a5,8
    80000b38:	f6e43023          	sd	a4,-160(s0)
    80000b3c:	0007a783          	lw	a5,0(a5)
    80000b40:	f8f43423          	sd	a5,-120(s0)
    80000b44:	fe842783          	lw	a5,-24(s0)
    80000b48:	0007879b          	sext.w	a5,a5
    80000b4c:	00078663          	beqz	a5,80000b58 <vsnprintf+0x148>
    80000b50:	00f00793          	li	a5,15
    80000b54:	0080006f          	j	80000b5c <vsnprintf+0x14c>
    80000b58:	00700793          	li	a5,7
    80000b5c:	f8f42223          	sw	a5,-124(s0)
    80000b60:	f8442783          	lw	a5,-124(s0)
    80000b64:	fcf42e23          	sw	a5,-36(s0)
    80000b68:	0940006f          	j	80000bfc <vsnprintf+0x1ec>
    80000b6c:	fdc42783          	lw	a5,-36(s0)
    80000b70:	0027979b          	slliw	a5,a5,0x2
    80000b74:	0007879b          	sext.w	a5,a5
    80000b78:	f8843703          	ld	a4,-120(s0)
    80000b7c:	40f757b3          	sra	a5,a4,a5
    80000b80:	0007879b          	sext.w	a5,a5
    80000b84:	00f7f793          	andi	a5,a5,15
    80000b88:	f8f42023          	sw	a5,-128(s0)
    80000b8c:	f7843783          	ld	a5,-136(s0)
    80000b90:	04078a63          	beqz	a5,80000be4 <vsnprintf+0x1d4>
    80000b94:	fe043703          	ld	a4,-32(s0)
    80000b98:	f7043783          	ld	a5,-144(s0)
    80000b9c:	04f77463          	bgeu	a4,a5,80000be4 <vsnprintf+0x1d4>
    80000ba0:	f8042783          	lw	a5,-128(s0)
    80000ba4:	0007871b          	sext.w	a4,a5
    80000ba8:	00900793          	li	a5,9
    80000bac:	00e7cc63          	blt	a5,a4,80000bc4 <vsnprintf+0x1b4>
    80000bb0:	f8042783          	lw	a5,-128(s0)
    80000bb4:	0ff7f793          	zext.b	a5,a5
    80000bb8:	0307879b          	addiw	a5,a5,48
    80000bbc:	0ff7f793          	zext.b	a5,a5
    80000bc0:	0140006f          	j	80000bd4 <vsnprintf+0x1c4>
    80000bc4:	f8042783          	lw	a5,-128(s0)
    80000bc8:	0ff7f793          	zext.b	a5,a5
    80000bcc:	0577879b          	addiw	a5,a5,87
    80000bd0:	0ff7f793          	zext.b	a5,a5
    80000bd4:	f7843683          	ld	a3,-136(s0)
    80000bd8:	fe043703          	ld	a4,-32(s0)
    80000bdc:	00e68733          	add	a4,a3,a4
    80000be0:	00f70023          	sb	a5,0(a4)
    80000be4:	fe043783          	ld	a5,-32(s0)
    80000be8:	00178793          	addi	a5,a5,1
    80000bec:	fef43023          	sd	a5,-32(s0)
    80000bf0:	fdc42783          	lw	a5,-36(s0)
    80000bf4:	fff7879b          	addiw	a5,a5,-1
    80000bf8:	fcf42e23          	sw	a5,-36(s0)
    80000bfc:	fdc42783          	lw	a5,-36(s0)
    80000c00:	0007879b          	sext.w	a5,a5
    80000c04:	f607d4e3          	bgez	a5,80000b6c <vsnprintf+0x15c>
    80000c08:	fe042423          	sw	zero,-24(s0)
    80000c0c:	fe042623          	sw	zero,-20(s0)
    80000c10:	3a00006f          	j	80000fb0 <vsnprintf+0x5a0>
    80000c14:	fe842783          	lw	a5,-24(s0)
    80000c18:	0007879b          	sext.w	a5,a5
    80000c1c:	00078c63          	beqz	a5,80000c34 <vsnprintf+0x224>
    80000c20:	f6043783          	ld	a5,-160(s0)
    80000c24:	00878713          	addi	a4,a5,8
    80000c28:	f6e43023          	sd	a4,-160(s0)
    80000c2c:	0007b783          	ld	a5,0(a5)
    80000c30:	01c0006f          	j	80000c4c <vsnprintf+0x23c>
    80000c34:	f6043783          	ld	a5,-160(s0)
    80000c38:	00878713          	addi	a4,a5,8
    80000c3c:	f6e43023          	sd	a4,-160(s0)
    80000c40:	0007a783          	lw	a5,0(a5)
    80000c44:	02079793          	slli	a5,a5,0x20
    80000c48:	0207d793          	srli	a5,a5,0x20
    80000c4c:	fcf43823          	sd	a5,-48(s0)
    80000c50:	00100793          	li	a5,1
    80000c54:	fcf43423          	sd	a5,-56(s0)
    80000c58:	fd043783          	ld	a5,-48(s0)
    80000c5c:	fcf43023          	sd	a5,-64(s0)
    80000c60:	0100006f          	j	80000c70 <vsnprintf+0x260>
    80000c64:	fc843783          	ld	a5,-56(s0)
    80000c68:	00178793          	addi	a5,a5,1
    80000c6c:	fcf43423          	sd	a5,-56(s0)
    80000c70:	fc043703          	ld	a4,-64(s0)
    80000c74:	00a00793          	li	a5,10
    80000c78:	02f747b3          	div	a5,a4,a5
    80000c7c:	fcf43023          	sd	a5,-64(s0)
    80000c80:	fc043783          	ld	a5,-64(s0)
    80000c84:	fe0790e3          	bnez	a5,80000c64 <vsnprintf+0x254>
    80000c88:	fc843783          	ld	a5,-56(s0)
    80000c8c:	0007879b          	sext.w	a5,a5
    80000c90:	fff7879b          	addiw	a5,a5,-1
    80000c94:	0007879b          	sext.w	a5,a5
    80000c98:	faf42e23          	sw	a5,-68(s0)
    80000c9c:	06c0006f          	j	80000d08 <vsnprintf+0x2f8>
    80000ca0:	f7843783          	ld	a5,-136(s0)
    80000ca4:	04078463          	beqz	a5,80000cec <vsnprintf+0x2dc>
    80000ca8:	fbc42703          	lw	a4,-68(s0)
    80000cac:	fe043783          	ld	a5,-32(s0)
    80000cb0:	00f707b3          	add	a5,a4,a5
    80000cb4:	f7043703          	ld	a4,-144(s0)
    80000cb8:	02e7fa63          	bgeu	a5,a4,80000cec <vsnprintf+0x2dc>
    80000cbc:	fd043703          	ld	a4,-48(s0)
    80000cc0:	00a00793          	li	a5,10
    80000cc4:	02f777b3          	remu	a5,a4,a5
    80000cc8:	0ff7f713          	zext.b	a4,a5
    80000ccc:	fbc42683          	lw	a3,-68(s0)
    80000cd0:	fe043783          	ld	a5,-32(s0)
    80000cd4:	00f687b3          	add	a5,a3,a5
    80000cd8:	f7843683          	ld	a3,-136(s0)
    80000cdc:	00f687b3          	add	a5,a3,a5
    80000ce0:	0307071b          	addiw	a4,a4,48
    80000ce4:	0ff77713          	zext.b	a4,a4
    80000ce8:	00e78023          	sb	a4,0(a5)
    80000cec:	fd043703          	ld	a4,-48(s0)
    80000cf0:	00a00793          	li	a5,10
    80000cf4:	02f757b3          	divu	a5,a4,a5
    80000cf8:	fcf43823          	sd	a5,-48(s0)
    80000cfc:	fbc42783          	lw	a5,-68(s0)
    80000d00:	fff7879b          	addiw	a5,a5,-1
    80000d04:	faf42e23          	sw	a5,-68(s0)
    80000d08:	fbc42783          	lw	a5,-68(s0)
    80000d0c:	0007879b          	sext.w	a5,a5
    80000d10:	f807d8e3          	bgez	a5,80000ca0 <vsnprintf+0x290>
    80000d14:	fc843783          	ld	a5,-56(s0)
    80000d18:	fe043703          	ld	a4,-32(s0)
    80000d1c:	00f707b3          	add	a5,a4,a5
    80000d20:	fef43023          	sd	a5,-32(s0)
    80000d24:	fe042423          	sw	zero,-24(s0)
    80000d28:	fe042623          	sw	zero,-20(s0)
    80000d2c:	2840006f          	j	80000fb0 <vsnprintf+0x5a0>
    80000d30:	fe842783          	lw	a5,-24(s0)
    80000d34:	0007879b          	sext.w	a5,a5
    80000d38:	00078c63          	beqz	a5,80000d50 <vsnprintf+0x340>
    80000d3c:	f6043783          	ld	a5,-160(s0)
    80000d40:	00878713          	addi	a4,a5,8
    80000d44:	f6e43023          	sd	a4,-160(s0)
    80000d48:	0007b783          	ld	a5,0(a5)
    80000d4c:	0140006f          	j	80000d60 <vsnprintf+0x350>
    80000d50:	f6043783          	ld	a5,-160(s0)
    80000d54:	00878713          	addi	a4,a5,8
    80000d58:	f6e43023          	sd	a4,-160(s0)
    80000d5c:	0007a783          	lw	a5,0(a5)
    80000d60:	faf43823          	sd	a5,-80(s0)
    80000d64:	fb043783          	ld	a5,-80(s0)
    80000d68:	0407d263          	bgez	a5,80000dac <vsnprintf+0x39c>
    80000d6c:	fb043783          	ld	a5,-80(s0)
    80000d70:	40f007b3          	neg	a5,a5
    80000d74:	faf43823          	sd	a5,-80(s0)
    80000d78:	f7843783          	ld	a5,-136(s0)
    80000d7c:	02078263          	beqz	a5,80000da0 <vsnprintf+0x390>
    80000d80:	fe043703          	ld	a4,-32(s0)
    80000d84:	f7043783          	ld	a5,-144(s0)
    80000d88:	00f77c63          	bgeu	a4,a5,80000da0 <vsnprintf+0x390>
    80000d8c:	f7843703          	ld	a4,-136(s0)
    80000d90:	fe043783          	ld	a5,-32(s0)
    80000d94:	00f707b3          	add	a5,a4,a5
    80000d98:	02d00713          	li	a4,45
    80000d9c:	00e78023          	sb	a4,0(a5)
    80000da0:	fe043783          	ld	a5,-32(s0)
    80000da4:	00178793          	addi	a5,a5,1
    80000da8:	fef43023          	sd	a5,-32(s0)
    80000dac:	00100793          	li	a5,1
    80000db0:	faf43423          	sd	a5,-88(s0)
    80000db4:	fb043783          	ld	a5,-80(s0)
    80000db8:	faf43023          	sd	a5,-96(s0)
    80000dbc:	0100006f          	j	80000dcc <vsnprintf+0x3bc>
    80000dc0:	fa843783          	ld	a5,-88(s0)
    80000dc4:	00178793          	addi	a5,a5,1
    80000dc8:	faf43423          	sd	a5,-88(s0)
    80000dcc:	fa043703          	ld	a4,-96(s0)
    80000dd0:	00a00793          	li	a5,10
    80000dd4:	02f747b3          	div	a5,a4,a5
    80000dd8:	faf43023          	sd	a5,-96(s0)
    80000ddc:	fa043783          	ld	a5,-96(s0)
    80000de0:	fe0790e3          	bnez	a5,80000dc0 <vsnprintf+0x3b0>
    80000de4:	fa843783          	ld	a5,-88(s0)
    80000de8:	0007879b          	sext.w	a5,a5
    80000dec:	fff7879b          	addiw	a5,a5,-1
    80000df0:	0007879b          	sext.w	a5,a5
    80000df4:	f8f42e23          	sw	a5,-100(s0)
    80000df8:	06c0006f          	j	80000e64 <vsnprintf+0x454>
    80000dfc:	f7843783          	ld	a5,-136(s0)
    80000e00:	04078463          	beqz	a5,80000e48 <vsnprintf+0x438>
    80000e04:	f9c42703          	lw	a4,-100(s0)
    80000e08:	fe043783          	ld	a5,-32(s0)
    80000e0c:	00f707b3          	add	a5,a4,a5
    80000e10:	f7043703          	ld	a4,-144(s0)
    80000e14:	02e7fa63          	bgeu	a5,a4,80000e48 <vsnprintf+0x438>
    80000e18:	fb043703          	ld	a4,-80(s0)
    80000e1c:	00a00793          	li	a5,10
    80000e20:	02f767b3          	rem	a5,a4,a5
    80000e24:	0ff7f713          	zext.b	a4,a5
    80000e28:	f9c42683          	lw	a3,-100(s0)
    80000e2c:	fe043783          	ld	a5,-32(s0)
    80000e30:	00f687b3          	add	a5,a3,a5
    80000e34:	f7843683          	ld	a3,-136(s0)
    80000e38:	00f687b3          	add	a5,a3,a5
    80000e3c:	0307071b          	addiw	a4,a4,48
    80000e40:	0ff77713          	zext.b	a4,a4
    80000e44:	00e78023          	sb	a4,0(a5)
    80000e48:	fb043703          	ld	a4,-80(s0)
    80000e4c:	00a00793          	li	a5,10
    80000e50:	02f747b3          	div	a5,a4,a5
    80000e54:	faf43823          	sd	a5,-80(s0)
    80000e58:	f9c42783          	lw	a5,-100(s0)
    80000e5c:	fff7879b          	addiw	a5,a5,-1
    80000e60:	f8f42e23          	sw	a5,-100(s0)
    80000e64:	f9c42783          	lw	a5,-100(s0)
    80000e68:	0007879b          	sext.w	a5,a5
    80000e6c:	f807d8e3          	bgez	a5,80000dfc <vsnprintf+0x3ec>
    80000e70:	fa843783          	ld	a5,-88(s0)
    80000e74:	fe043703          	ld	a4,-32(s0)
    80000e78:	00f707b3          	add	a5,a4,a5
    80000e7c:	fef43023          	sd	a5,-32(s0)
    80000e80:	fe042423          	sw	zero,-24(s0)
    80000e84:	fe042623          	sw	zero,-20(s0)
    80000e88:	1280006f          	j	80000fb0 <vsnprintf+0x5a0>
    80000e8c:	f6043783          	ld	a5,-160(s0)
    80000e90:	00878713          	addi	a4,a5,8
    80000e94:	f6e43023          	sd	a4,-160(s0)
    80000e98:	0007b783          	ld	a5,0(a5)
    80000e9c:	f8f43823          	sd	a5,-112(s0)
    80000ea0:	0480006f          	j	80000ee8 <vsnprintf+0x4d8>
    80000ea4:	f7843783          	ld	a5,-136(s0)
    80000ea8:	02078463          	beqz	a5,80000ed0 <vsnprintf+0x4c0>
    80000eac:	fe043703          	ld	a4,-32(s0)
    80000eb0:	f7043783          	ld	a5,-144(s0)
    80000eb4:	00f77e63          	bgeu	a4,a5,80000ed0 <vsnprintf+0x4c0>
    80000eb8:	f7843703          	ld	a4,-136(s0)
    80000ebc:	fe043783          	ld	a5,-32(s0)
    80000ec0:	00f707b3          	add	a5,a4,a5
    80000ec4:	f9043703          	ld	a4,-112(s0)
    80000ec8:	00074703          	lbu	a4,0(a4)
    80000ecc:	00e78023          	sb	a4,0(a5)
    80000ed0:	fe043783          	ld	a5,-32(s0)
    80000ed4:	00178793          	addi	a5,a5,1
    80000ed8:	fef43023          	sd	a5,-32(s0)
    80000edc:	f9043783          	ld	a5,-112(s0)
    80000ee0:	00178793          	addi	a5,a5,1
    80000ee4:	f8f43823          	sd	a5,-112(s0)
    80000ee8:	f9043783          	ld	a5,-112(s0)
    80000eec:	0007c783          	lbu	a5,0(a5)
    80000ef0:	fa079ae3          	bnez	a5,80000ea4 <vsnprintf+0x494>
    80000ef4:	fe042423          	sw	zero,-24(s0)
    80000ef8:	fe042623          	sw	zero,-20(s0)
    80000efc:	0b40006f          	j	80000fb0 <vsnprintf+0x5a0>
    80000f00:	f7843783          	ld	a5,-136(s0)
    80000f04:	02078a63          	beqz	a5,80000f38 <vsnprintf+0x528>
    80000f08:	fe043703          	ld	a4,-32(s0)
    80000f0c:	f7043783          	ld	a5,-144(s0)
    80000f10:	02f77463          	bgeu	a4,a5,80000f38 <vsnprintf+0x528>
    80000f14:	f6043783          	ld	a5,-160(s0)
    80000f18:	00878713          	addi	a4,a5,8
    80000f1c:	f6e43023          	sd	a4,-160(s0)
    80000f20:	0007a683          	lw	a3,0(a5)
    80000f24:	f7843703          	ld	a4,-136(s0)
    80000f28:	fe043783          	ld	a5,-32(s0)
    80000f2c:	00f707b3          	add	a5,a4,a5
    80000f30:	0ff6f713          	zext.b	a4,a3
    80000f34:	00e78023          	sb	a4,0(a5)
    80000f38:	fe043783          	ld	a5,-32(s0)
    80000f3c:	00178793          	addi	a5,a5,1
    80000f40:	fef43023          	sd	a5,-32(s0)
    80000f44:	fe042423          	sw	zero,-24(s0)
    80000f48:	fe042623          	sw	zero,-20(s0)
    80000f4c:	0640006f          	j	80000fb0 <vsnprintf+0x5a0>
    80000f50:	f6843783          	ld	a5,-152(s0)
    80000f54:	0007c783          	lbu	a5,0(a5)
    80000f58:	00078713          	mv	a4,a5
    80000f5c:	02500793          	li	a5,37
    80000f60:	00f71863          	bne	a4,a5,80000f70 <vsnprintf+0x560>
    80000f64:	00100793          	li	a5,1
    80000f68:	fef42623          	sw	a5,-20(s0)
    80000f6c:	0440006f          	j	80000fb0 <vsnprintf+0x5a0>
    80000f70:	f7843783          	ld	a5,-136(s0)
    80000f74:	02078463          	beqz	a5,80000f9c <vsnprintf+0x58c>
    80000f78:	fe043703          	ld	a4,-32(s0)
    80000f7c:	f7043783          	ld	a5,-144(s0)
    80000f80:	00f77e63          	bgeu	a4,a5,80000f9c <vsnprintf+0x58c>
    80000f84:	f7843703          	ld	a4,-136(s0)
    80000f88:	fe043783          	ld	a5,-32(s0)
    80000f8c:	00f707b3          	add	a5,a4,a5
    80000f90:	f6843703          	ld	a4,-152(s0)
    80000f94:	00074703          	lbu	a4,0(a4)
    80000f98:	00e78023          	sb	a4,0(a5)
    80000f9c:	fe043783          	ld	a5,-32(s0)
    80000fa0:	00178793          	addi	a5,a5,1
    80000fa4:	fef43023          	sd	a5,-32(s0)
    80000fa8:	0080006f          	j	80000fb0 <vsnprintf+0x5a0>
    80000fac:	00000013          	nop
    80000fb0:	f6843783          	ld	a5,-152(s0)
    80000fb4:	00178793          	addi	a5,a5,1
    80000fb8:	f6f43423          	sd	a5,-152(s0)
    80000fbc:	f6843783          	ld	a5,-152(s0)
    80000fc0:	0007c783          	lbu	a5,0(a5)
    80000fc4:	a6079ce3          	bnez	a5,80000a3c <vsnprintf+0x2c>
    80000fc8:	f7843783          	ld	a5,-136(s0)
    80000fcc:	02078263          	beqz	a5,80000ff0 <vsnprintf+0x5e0>
    80000fd0:	fe043703          	ld	a4,-32(s0)
    80000fd4:	f7043783          	ld	a5,-144(s0)
    80000fd8:	00f77c63          	bgeu	a4,a5,80000ff0 <vsnprintf+0x5e0>
    80000fdc:	f7843703          	ld	a4,-136(s0)
    80000fe0:	fe043783          	ld	a5,-32(s0)
    80000fe4:	00f707b3          	add	a5,a4,a5
    80000fe8:	00078023          	sb	zero,0(a5)
    80000fec:	0280006f          	j	80001014 <vsnprintf+0x604>
    80000ff0:	f7843783          	ld	a5,-136(s0)
    80000ff4:	02078063          	beqz	a5,80001014 <vsnprintf+0x604>
    80000ff8:	f7043783          	ld	a5,-144(s0)
    80000ffc:	00078c63          	beqz	a5,80001014 <vsnprintf+0x604>
    80001000:	f7043783          	ld	a5,-144(s0)
    80001004:	fff78793          	addi	a5,a5,-1
    80001008:	f7843703          	ld	a4,-136(s0)
    8000100c:	00f707b3          	add	a5,a4,a5
    80001010:	00078023          	sb	zero,0(a5)
    80001014:	fe043783          	ld	a5,-32(s0)
    80001018:	0007879b          	sext.w	a5,a5
    8000101c:	00078513          	mv	a0,a5
    80001020:	09813403          	ld	s0,152(sp)
    80001024:	0a010113          	addi	sp,sp,160
    80001028:	00008067          	ret

000000008000102c <vsprintf>:
    8000102c:	fd010113          	addi	sp,sp,-48
    80001030:	02113423          	sd	ra,40(sp)
    80001034:	02813023          	sd	s0,32(sp)
    80001038:	03010413          	addi	s0,sp,48
    8000103c:	fea43423          	sd	a0,-24(s0)
    80001040:	feb43023          	sd	a1,-32(s0)
    80001044:	fcc43c23          	sd	a2,-40(s0)
    80001048:	fd843683          	ld	a3,-40(s0)
    8000104c:	fe043603          	ld	a2,-32(s0)
    80001050:	100007b7          	lui	a5,0x10000
    80001054:	fff78593          	addi	a1,a5,-1 # fffffff <MTIME+0xdff4007>
    80001058:	fe843503          	ld	a0,-24(s0)
    8000105c:	9b5ff0ef          	jal	ra,80000a10 <vsnprintf>
    80001060:	00050793          	mv	a5,a0
    80001064:	00078513          	mv	a0,a5
    80001068:	02813083          	ld	ra,40(sp)
    8000106c:	02013403          	ld	s0,32(sp)
    80001070:	03010113          	addi	sp,sp,48
    80001074:	00008067          	ret

0000000080001078 <sprintf>:
    80001078:	f9010113          	addi	sp,sp,-112
    8000107c:	02113c23          	sd	ra,56(sp)
    80001080:	02813823          	sd	s0,48(sp)
    80001084:	04010413          	addi	s0,sp,64
    80001088:	fca43c23          	sd	a0,-40(s0)
    8000108c:	fcb43823          	sd	a1,-48(s0)
    80001090:	00c43023          	sd	a2,0(s0)
    80001094:	00d43423          	sd	a3,8(s0)
    80001098:	00e43823          	sd	a4,16(s0)
    8000109c:	00f43c23          	sd	a5,24(s0)
    800010a0:	03043023          	sd	a6,32(s0)
    800010a4:	03143423          	sd	a7,40(s0)
    800010a8:	03040793          	addi	a5,s0,48
    800010ac:	fcf43423          	sd	a5,-56(s0)
    800010b0:	fc843783          	ld	a5,-56(s0)
    800010b4:	fd078793          	addi	a5,a5,-48
    800010b8:	fef43023          	sd	a5,-32(s0)
    800010bc:	fe043783          	ld	a5,-32(s0)
    800010c0:	00078613          	mv	a2,a5
    800010c4:	fd043583          	ld	a1,-48(s0)
    800010c8:	fd843503          	ld	a0,-40(s0)
    800010cc:	f61ff0ef          	jal	ra,8000102c <vsprintf>
    800010d0:	00050793          	mv	a5,a0
    800010d4:	fef42623          	sw	a5,-20(s0)
    800010d8:	fec42783          	lw	a5,-20(s0)
    800010dc:	00078513          	mv	a0,a5
    800010e0:	03813083          	ld	ra,56(sp)
    800010e4:	03013403          	ld	s0,48(sp)
    800010e8:	07010113          	addi	sp,sp,112
    800010ec:	00008067          	ret

00000000800010f0 <snprintf>:
    800010f0:	f9010113          	addi	sp,sp,-112
    800010f4:	02113c23          	sd	ra,56(sp)
    800010f8:	02813823          	sd	s0,48(sp)
    800010fc:	04010413          	addi	s0,sp,64
    80001100:	fca43c23          	sd	a0,-40(s0)
    80001104:	fcb43823          	sd	a1,-48(s0)
    80001108:	fcc43423          	sd	a2,-56(s0)
    8000110c:	00d43423          	sd	a3,8(s0)
    80001110:	00e43823          	sd	a4,16(s0)
    80001114:	00f43c23          	sd	a5,24(s0)
    80001118:	03043023          	sd	a6,32(s0)
    8000111c:	03143423          	sd	a7,40(s0)
    80001120:	03040793          	addi	a5,s0,48
    80001124:	fcf43023          	sd	a5,-64(s0)
    80001128:	fc043783          	ld	a5,-64(s0)
    8000112c:	fd878793          	addi	a5,a5,-40
    80001130:	fef43023          	sd	a5,-32(s0)
    80001134:	fe043783          	ld	a5,-32(s0)
    80001138:	00078693          	mv	a3,a5
    8000113c:	fc843603          	ld	a2,-56(s0)
    80001140:	fd043583          	ld	a1,-48(s0)
    80001144:	fd843503          	ld	a0,-40(s0)
    80001148:	8c9ff0ef          	jal	ra,80000a10 <vsnprintf>
    8000114c:	00050793          	mv	a5,a0
    80001150:	fef42623          	sw	a5,-20(s0)
    80001154:	fec42783          	lw	a5,-20(s0)
    80001158:	00078513          	mv	a0,a5
    8000115c:	03813083          	ld	ra,56(sp)
    80001160:	03013403          	ld	s0,48(sp)
    80001164:	07010113          	addi	sp,sp,112
    80001168:	00008067          	ret

000000008000116c <uart_init>:
    8000116c:	fd010113          	addi	sp,sp,-48
    80001170:	02113423          	sd	ra,40(sp)
    80001174:	02813023          	sd	s0,32(sp)
    80001178:	03010413          	addi	s0,sp,48
    8000117c:	100007b7          	lui	a5,0x10000
    80001180:	fef43423          	sd	a5,-24(s0)
    80001184:	fe843783          	ld	a5,-24(s0)
    80001188:	00178793          	addi	a5,a5,1 # 10000001 <MTIME+0xdff4009>
    8000118c:	00078023          	sb	zero,0(a5)
    80001190:	01100793          	li	a5,17
    80001194:	fef403a3          	sb	a5,-25(s0)
    80001198:	fe843783          	ld	a5,-24(s0)
    8000119c:	00378793          	addi	a5,a5,3
    800011a0:	01100713          	li	a4,17
    800011a4:	00e78023          	sb	a4,0(a5)
    800011a8:	00000517          	auipc	a0,0x0
    800011ac:	74850513          	addi	a0,a0,1864 # 800018f0 <s_context_switch_msg+0x35e>
    800011b0:	29c000ef          	jal	ra,8000144c <print>
    800011b4:	000117b7          	lui	a5,0x11
    800011b8:	fef42023          	sw	a5,-32(s0)
    800011bc:	000117b7          	lui	a5,0x11
    800011c0:	10078793          	addi	a5,a5,256 # 11100 <MSTATUS_SPIE_MASK+0x110e0>
    800011c4:	fcf42e23          	sw	a5,-36(s0)
    800011c8:	fe042783          	lw	a5,-32(s0)
    800011cc:	00078713          	mv	a4,a5
    800011d0:	fdc42783          	lw	a5,-36(s0)
    800011d4:	02f757bb          	divuw	a5,a4,a5
    800011d8:	0007879b          	sext.w	a5,a5
    800011dc:	fff7879b          	addiw	a5,a5,-1
    800011e0:	fcf42c23          	sw	a5,-40(s0)
    800011e4:	00001797          	auipc	a5,0x1
    800011e8:	e1c78793          	addi	a5,a5,-484 # 80002000 <uart>
    800011ec:	0007b783          	ld	a5,0(a5)
    800011f0:	01878793          	addi	a5,a5,24
    800011f4:	fd842703          	lw	a4,-40(s0)
    800011f8:	00e7a023          	sw	a4,0(a5)
    800011fc:	00001797          	auipc	a5,0x1
    80001200:	e0478793          	addi	a5,a5,-508 # 80002000 <uart>
    80001204:	0007b783          	ld	a5,0(a5)
    80001208:	00878793          	addi	a5,a5,8
    8000120c:	00100713          	li	a4,1
    80001210:	00e7a023          	sw	a4,0(a5)
    80001214:	00001797          	auipc	a5,0x1
    80001218:	dec78793          	addi	a5,a5,-532 # 80002000 <uart>
    8000121c:	0007b783          	ld	a5,0(a5)
    80001220:	00c78793          	addi	a5,a5,12
    80001224:	00100713          	li	a4,1
    80001228:	00e7a023          	sw	a4,0(a5)
    8000122c:	00001797          	auipc	a5,0x1
    80001230:	dd478793          	addi	a5,a5,-556 # 80002000 <uart>
    80001234:	0007b783          	ld	a5,0(a5)
    80001238:	01078793          	addi	a5,a5,16
    8000123c:	00200713          	li	a4,2
    80001240:	00e7a023          	sw	a4,0(a5)
    80001244:	00000013          	nop
    80001248:	02813083          	ld	ra,40(sp)
    8000124c:	02013403          	ld	s0,32(sp)
    80001250:	03010113          	addi	sp,sp,48
    80001254:	00008067          	ret

0000000080001258 <virt_uart_getchar>:
    80001258:	fe010113          	addi	sp,sp,-32
    8000125c:	00813c23          	sd	s0,24(sp)
    80001260:	02010413          	addi	s0,sp,32
    80001264:	00001797          	auipc	a5,0x1
    80001268:	d9c78793          	addi	a5,a5,-612 # 80002000 <uart>
    8000126c:	0007b783          	ld	a5,0(a5)
    80001270:	00478793          	addi	a5,a5,4
    80001274:	0007a783          	lw	a5,0(a5)
    80001278:	fef42623          	sw	a5,-20(s0)
    8000127c:	fec42783          	lw	a5,-20(s0)
    80001280:	0007879b          	sext.w	a5,a5
    80001284:	0007d663          	bgez	a5,80001290 <virt_uart_getchar+0x38>
    80001288:	fff00793          	li	a5,-1
    8000128c:	0080006f          	j	80001294 <virt_uart_getchar+0x3c>
    80001290:	fec42783          	lw	a5,-20(s0)
    80001294:	00078513          	mv	a0,a5
    80001298:	01813403          	ld	s0,24(sp)
    8000129c:	02010113          	addi	sp,sp,32
    800012a0:	00008067          	ret

00000000800012a4 <virt_uart_putchar>:
    800012a4:	fe010113          	addi	sp,sp,-32
    800012a8:	00813c23          	sd	s0,24(sp)
    800012ac:	02010413          	addi	s0,sp,32
    800012b0:	00050793          	mv	a5,a0
    800012b4:	fef42623          	sw	a5,-20(s0)
    800012b8:	00000013          	nop
    800012bc:	00001797          	auipc	a5,0x1
    800012c0:	d4478793          	addi	a5,a5,-700 # 80002000 <uart>
    800012c4:	0007b783          	ld	a5,0(a5)
    800012c8:	0007a783          	lw	a5,0(a5)
    800012cc:	0007879b          	sext.w	a5,a5
    800012d0:	fe07c6e3          	bltz	a5,800012bc <virt_uart_putchar+0x18>
    800012d4:	00001797          	auipc	a5,0x1
    800012d8:	d2c78793          	addi	a5,a5,-724 # 80002000 <uart>
    800012dc:	0007b703          	ld	a4,0(a5)
    800012e0:	fec42783          	lw	a5,-20(s0)
    800012e4:	0ff7f793          	zext.b	a5,a5
    800012e8:	0007879b          	sext.w	a5,a5
    800012ec:	00f72023          	sw	a5,0(a4)
    800012f0:	00078513          	mv	a0,a5
    800012f4:	01813403          	ld	s0,24(sp)
    800012f8:	02010113          	addi	sp,sp,32
    800012fc:	00008067          	ret

0000000080001300 <putChar>:
    80001300:	fd010113          	addi	sp,sp,-48
    80001304:	02813423          	sd	s0,40(sp)
    80001308:	03010413          	addi	s0,sp,48
    8000130c:	00050793          	mv	a5,a0
    80001310:	fcf40fa3          	sb	a5,-33(s0)
    80001314:	100007b7          	lui	a5,0x10000
    80001318:	fef43423          	sd	a5,-24(s0)
    8000131c:	fe843783          	ld	a5,-24(s0)
    80001320:	fdf44703          	lbu	a4,-33(s0)
    80001324:	00e78023          	sb	a4,0(a5) # 10000000 <MTIME+0xdff4008>
    80001328:	00100793          	li	a5,1
    8000132c:	00078513          	mv	a0,a5
    80001330:	02813403          	ld	s0,40(sp)
    80001334:	03010113          	addi	sp,sp,48
    80001338:	00008067          	ret

000000008000133c <putint>:
    8000133c:	fd010113          	addi	sp,sp,-48
    80001340:	02113423          	sd	ra,40(sp)
    80001344:	02813023          	sd	s0,32(sp)
    80001348:	03010413          	addi	s0,sp,48
    8000134c:	00050793          	mv	a5,a0
    80001350:	fcf42e23          	sw	a5,-36(s0)
    80001354:	02f00793          	li	a5,47
    80001358:	fef407a3          	sb	a5,-17(s0)
    8000135c:	fdc42783          	lw	a5,-36(s0)
    80001360:	0ff7f793          	zext.b	a5,a5
    80001364:	fef44703          	lbu	a4,-17(s0)
    80001368:	00f707bb          	addw	a5,a4,a5
    8000136c:	0ff7f793          	zext.b	a5,a5
    80001370:	0017879b          	addiw	a5,a5,1
    80001374:	0ff7f793          	zext.b	a5,a5
    80001378:	00078513          	mv	a0,a5
    8000137c:	f85ff0ef          	jal	ra,80001300 <putChar>
    80001380:	00000013          	nop
    80001384:	02813083          	ld	ra,40(sp)
    80001388:	02013403          	ld	s0,32(sp)
    8000138c:	03010113          	addi	sp,sp,48
    80001390:	00008067          	ret

0000000080001394 <intTochar>:
    80001394:	fe010113          	addi	sp,sp,-32
    80001398:	00813c23          	sd	s0,24(sp)
    8000139c:	02010413          	addi	s0,sp,32
    800013a0:	00050793          	mv	a5,a0
    800013a4:	fef42623          	sw	a5,-20(s0)
    800013a8:	fec42783          	lw	a5,-20(s0)
    800013ac:	0ff7f793          	zext.b	a5,a5
    800013b0:	0307879b          	addiw	a5,a5,48
    800013b4:	0ff7f793          	zext.b	a5,a5
    800013b8:	00078513          	mv	a0,a5
    800013bc:	01813403          	ld	s0,24(sp)
    800013c0:	02010113          	addi	sp,sp,32
    800013c4:	00008067          	ret

00000000800013c8 <printInt>:
    800013c8:	fe010113          	addi	sp,sp,-32
    800013cc:	00113c23          	sd	ra,24(sp)
    800013d0:	00813823          	sd	s0,16(sp)
    800013d4:	02010413          	addi	s0,sp,32
    800013d8:	00050793          	mv	a5,a0
    800013dc:	fef42623          	sw	a5,-20(s0)
    800013e0:	0340006f          	j	80001414 <printInt+0x4c>
    800013e4:	fec42783          	lw	a5,-20(s0)
    800013e8:	00078713          	mv	a4,a5
    800013ec:	00a00793          	li	a5,10
    800013f0:	02f767bb          	remw	a5,a4,a5
    800013f4:	0007879b          	sext.w	a5,a5
    800013f8:	00078513          	mv	a0,a5
    800013fc:	f41ff0ef          	jal	ra,8000133c <putint>
    80001400:	fec42783          	lw	a5,-20(s0)
    80001404:	00078713          	mv	a4,a5
    80001408:	00a00793          	li	a5,10
    8000140c:	02f747bb          	divw	a5,a4,a5
    80001410:	fef42623          	sw	a5,-20(s0)
    80001414:	fec42783          	lw	a5,-20(s0)
    80001418:	0007871b          	sext.w	a4,a5
    8000141c:	00900793          	li	a5,9
    80001420:	fce7c2e3          	blt	a5,a4,800013e4 <printInt+0x1c>
    80001424:	fec42783          	lw	a5,-20(s0)
    80001428:	00078513          	mv	a0,a5
    8000142c:	f11ff0ef          	jal	ra,8000133c <putint>
    80001430:	00a00513          	li	a0,10
    80001434:	ecdff0ef          	jal	ra,80001300 <putChar>
    80001438:	00000013          	nop
    8000143c:	01813083          	ld	ra,24(sp)
    80001440:	01013403          	ld	s0,16(sp)
    80001444:	02010113          	addi	sp,sp,32
    80001448:	00008067          	ret

000000008000144c <print>:
    8000144c:	fe010113          	addi	sp,sp,-32
    80001450:	00113c23          	sd	ra,24(sp)
    80001454:	00813823          	sd	s0,16(sp)
    80001458:	02010413          	addi	s0,sp,32
    8000145c:	fea43423          	sd	a0,-24(s0)
    80001460:	0200006f          	j	80001480 <print+0x34>
    80001464:	fe843783          	ld	a5,-24(s0)
    80001468:	0007c783          	lbu	a5,0(a5)
    8000146c:	00078513          	mv	a0,a5
    80001470:	e91ff0ef          	jal	ra,80001300 <putChar>
    80001474:	fe843783          	ld	a5,-24(s0)
    80001478:	00178793          	addi	a5,a5,1
    8000147c:	fef43423          	sd	a5,-24(s0)
    80001480:	fe843783          	ld	a5,-24(s0)
    80001484:	0007c783          	lbu	a5,0(a5)
    80001488:	fc079ee3          	bnez	a5,80001464 <print+0x18>
    8000148c:	00000013          	nop
    80001490:	00000013          	nop
    80001494:	01813083          	ld	ra,24(sp)
    80001498:	01013403          	ld	s0,16(sp)
    8000149c:	02010113          	addi	sp,sp,32
    800014a0:	00008067          	ret

00000000800014a4 <vprintf>:
    800014a4:	fc010113          	addi	sp,sp,-64
    800014a8:	02113c23          	sd	ra,56(sp)
    800014ac:	02813823          	sd	s0,48(sp)
    800014b0:	04010413          	addi	s0,sp,64
    800014b4:	fca43423          	sd	a0,-56(s0)
    800014b8:	fcb43023          	sd	a1,-64(s0)
    800014bc:	fff00793          	li	a5,-1
    800014c0:	fef43423          	sd	a5,-24(s0)
    800014c4:	fc043683          	ld	a3,-64(s0)
    800014c8:	fc843603          	ld	a2,-56(s0)
    800014cc:	fe843583          	ld	a1,-24(s0)
    800014d0:	00000513          	li	a0,0
    800014d4:	d3cff0ef          	jal	ra,80000a10 <vsnprintf>
    800014d8:	00050793          	mv	a5,a0
    800014dc:	fef42223          	sw	a5,-28(s0)
    800014e0:	fe442783          	lw	a5,-28(s0)
    800014e4:	0017879b          	addiw	a5,a5,1
    800014e8:	0007879b          	sext.w	a5,a5
    800014ec:	00f78793          	addi	a5,a5,15
    800014f0:	0047d793          	srli	a5,a5,0x4
    800014f4:	00479793          	slli	a5,a5,0x4
    800014f8:	40f10133          	sub	sp,sp,a5
    800014fc:	00010793          	mv	a5,sp
    80001500:	00f78793          	addi	a5,a5,15
    80001504:	0047d793          	srli	a5,a5,0x4
    80001508:	00479793          	slli	a5,a5,0x4
    8000150c:	fcf43c23          	sd	a5,-40(s0)
    80001510:	fe442783          	lw	a5,-28(s0)
    80001514:	0017879b          	addiw	a5,a5,1
    80001518:	0007879b          	sext.w	a5,a5
    8000151c:	fc043683          	ld	a3,-64(s0)
    80001520:	fc843603          	ld	a2,-56(s0)
    80001524:	00078593          	mv	a1,a5
    80001528:	fd843503          	ld	a0,-40(s0)
    8000152c:	ce4ff0ef          	jal	ra,80000a10 <vsnprintf>
    80001530:	fd843503          	ld	a0,-40(s0)
    80001534:	f19ff0ef          	jal	ra,8000144c <print>
    80001538:	fe442783          	lw	a5,-28(s0)
    8000153c:	00078513          	mv	a0,a5
    80001540:	fc040113          	addi	sp,s0,-64
    80001544:	03813083          	ld	ra,56(sp)
    80001548:	03013403          	ld	s0,48(sp)
    8000154c:	04010113          	addi	sp,sp,64
    80001550:	00008067          	ret
